; Function Attrs: mustprogress nofree norecurse nosync nounwind willreturn memory(argmem: readwrite) uwtable
define void @_ZN6icu_7717CharacterIteratorC2ERKS0_(ptr noundef nonnull writeonly align 8 captures(none) dereferenceable(24) initializes((0, 24)) %0, ptr noundef nonnull readonly align 8 captures(none) dereferenceable(24) %1) unnamed_addr #6 align 2 {
  store ptr getelementptr inbounds nuw inrange(-16, 216) (i8, ptr @_ZTVN6icu_7717CharacterIteratorE, i64 16), ptr %0, align 8, !tbaa !3
  %3 = getelementptr inbounds nuw i8, ptr %0, i64 8
  %4 = getelementptr inbounds nuw i8, ptr %1, i64 8
  %5 = load i32, ptr %4, align 8, !tbaa !6
  store i32 %5, ptr %3, align 8, !tbaa !6
  %6 = getelementptr inbounds nuw i8, ptr %0, i64 12
  %7 = getelementptr inbounds nuw i8, ptr %1, i64 12
  %8 = load i32, ptr %7, align 4, !tbaa !12
  store i32 %8, ptr %6, align 4, !tbaa !12
  %9 = getelementptr inbounds nuw i8, ptr %0, i64 16
  %10 = getelementptr inbounds nuw i8, ptr %1, i64 16
  %11 = load i32, ptr %10, align 8, !tbaa !13
  store i32 %11, ptr %9, align 8, !tbaa !13
  %12 = getelementptr inbounds nuw i8, ptr %0, i64 20
  %13 = getelementptr inbounds nuw i8, ptr %1, i64 20
  %14 = load i32, ptr %13, align 4, !tbaa !14
  store i32 %14, ptr %12, align 4, !tbaa !14
  ret void
}